target datalayout = "e-m:e-p270:32:32-p271:32:32-p272:64:64-i64:64-i128:128-f80:128-n8:16:32:64-S128"
target triple = "x86_64-pc-linux-gnu"

%struct.Vmem = type { ptr, i64, i64 }
%struct.ParseContext_ = type { %struct.TokenData, i32, %union.SourceSpan, %union.SourceSpan, ptr, %struct.Lexer }
%struct.TokenData = type { ptr, i64, %union.anon.86 }
%union.anon.86 = type { %struct.anon.89 }
%struct.anon.89 = type { %struct.Int128_, i8 }
%struct.Int128_ = type { i64, i64 }
%union.SourceSpan = type { i64 }
%struct.Lexer = type { ptr, ptr, ptr, ptr, i32, i32, ptr, ptr, ptr, %struct.TokenData, %union.SourceSpan, i32, i32 }
%struct.Ast_ = type { %union.SourceSpan, i32, i8, %union.anon.62 }
%union.anon.62 = type { %struct.AstDocDirective_ }
%struct.AstDocDirective_ = type { i8, %union.anon.65 }
%union.anon.65 = type { %struct.anon.66 }
%struct.anon.66 = type { ptr, %union.SourceSpan, i8 }
%struct.Expr_ = type { ptr, %union.SourceSpan, i16, %union.anon.30 }
%union.anon.30 = type { %struct.ExprAnySwitch }
%struct.ExprAnySwitch = type { i8, %union.anon.32 }
%union.anon.32 = type { %struct.anon.33 }
%struct.anon.33 = type { ptr, %union.SourceSpan, ptr }
%struct.AstCompoundStmt = type { i32 }
%struct.FlowCommon = type { i32, i8 }
%struct.AstForStmt = type { %struct.FlowCommon, %union.anon.71 }
%union.anon.71 = type { %struct.anon.73 }
%struct.anon.73 = type { ptr, ptr }
%struct.anon.72 = type { i32, i32, i32, i32 }

@poisoned_ast = external global ptr, align 8
@.str.11 = private unnamed_addr constant [13 x i8] c"Expected ';'\00", align 1
@.str.12 = private unnamed_addr constant [15 x i8] c"Expected '%s'.\00", align 1
@expr_arena = external global %struct.Vmem, align 8
@ast_arena = external global %struct.Vmem, align 8

; Function Attrs: nounwind uwtable
define internal i32 @astid(ptr noundef %0) #0 {
  %2 = alloca ptr, align 8
  store ptr %0, ptr %2, align 8
  %3 = load ptr, ptr %2, align 8
  %4 = load ptr, ptr @ast_arena, align 8
  %5 = ptrtoint ptr %3 to i64
  %6 = ptrtoint ptr %4 to i64
  %7 = sub i64 %5, %6
  %8 = sdiv exact i64 %7, 48
  %9 = trunc i64 %8 to i32
  ret i32 %9
}

; Function Attrs: nounwind uwtable
define internal i32 @exprid(ptr noundef %0) #0 {
  %2 = alloca ptr, align 8
  store ptr %0, ptr %2, align 8
  %3 = load ptr, ptr %2, align 8
  %4 = load ptr, ptr @expr_arena, align 8
  %5 = ptrtoint ptr %3 to i64
  %6 = ptrtoint ptr %4 to i64
  %7 = sub i64 %5, %6
  %8 = sdiv exact i64 %7, 56
  %9 = trunc i64 %8 to i32
  ret i32 %9
}

; Function Attrs: nounwind uwtable
define internal ptr @ast_calloc() #0 {
  %1 = call ptr @vmem_alloc(ptr noundef @ast_arena, i64 noundef 48)
  ret ptr %1
}

; Function Attrs: nounwind uwtable
define internal ptr @parse_ct_for_stmt(ptr noundef %0) #0 {
  %2 = alloca ptr, align 8
  %3 = alloca i32, align 4
  %4 = alloca ptr, align 8
  %5 = alloca i32, align 4
  %6 = alloca ptr, align 8
  %7 = alloca i32, align 4
  %8 = alloca ptr, align 8
  %9 = alloca i32, align 4
  %10 = alloca ptr, align 8
  %11 = alloca i32, align 4
  %12 = alloca ptr, align 8
  %13 = alloca i32, align 4
  %14 = alloca %union.SourceSpan, align 8
  %15 = alloca i32, align 4
  %16 = alloca ptr, align 8
  %17 = alloca %union.SourceSpan, align 8
  %18 = alloca i32, align 4
  %19 = alloca ptr, align 8
  %20 = alloca ptr, align 8
  %21 = alloca ptr, align 8
  %22 = alloca ptr, align 8
  %23 = alloca ptr, align 8
  %24 = alloca i32, align 4
  %25 = alloca ptr, align 8
  %26 = alloca i32, align 4
  %27 = alloca ptr, align 8
  %28 = alloca i1, align 1
  %29 = alloca ptr, align 8
  %30 = alloca i32, align 4
  %31 = alloca i1, align 1
  %32 = alloca ptr, align 8
  %33 = alloca i32, align 4
  %34 = alloca ptr, align 8
  %35 = alloca ptr, align 8
  %36 = alloca ptr, align 8
  %37 = alloca ptr, align 8
  %38 = alloca ptr, align 8
  %39 = alloca ptr, align 8
  %40 = alloca ptr, align 8
  %41 = alloca ptr, align 8
  %42 = alloca ptr, align 8
  %43 = alloca ptr, align 8
  store ptr %0, ptr %35, align 8
  %44 = load ptr, ptr %35, align 8
  store ptr %44, ptr %25, align 8
  store i32 12, ptr %26, align 4
  %45 = load i32, ptr %26, align 4
  %46 = load ptr, ptr %25, align 8
  %47 = getelementptr inbounds %struct.ParseContext_, ptr %46, i32 0, i32 2
  %48 = load i64, ptr %47, align 8
  store i64 %48, ptr %17, align 8
  store i32 %45, ptr %18, align 4
  %49 = call ptr @ast_calloc()
  store ptr %49, ptr %19, align 8
  %50 = load ptr, ptr %19, align 8
  call void @llvm.memcpy.p0.p0.i64(ptr align 8 %50, ptr align 8 %17, i64 8, i1 false)
  %51 = load i32, ptr %18, align 4
  %52 = load ptr, ptr %19, align 8
  %53 = getelementptr inbounds %struct.Ast_, ptr %52, i32 0, i32 2
  %54 = trunc i32 %51 to i8
  store i8 %54, ptr %53, align 4
  %55 = load ptr, ptr %19, align 8
  store ptr %55, ptr %36, align 8
  %56 = load ptr, ptr %35, align 8
  store ptr %56, ptr %23, align 8
  store i32 165, ptr %24, align 4
  %57 = load ptr, ptr %23, align 8
  call void @advance(ptr noundef %57) #4
  br label %58

58:                                               ; preds = %1
  %59 = load ptr, ptr %35, align 8
  store ptr %59, ptr %29, align 8
  store i32 19, ptr %30, align 4
  %60 = load ptr, ptr %29, align 8
  %61 = load i32, ptr %30, align 4
  store ptr %60, ptr %12, align 8
  store i32 %61, ptr %13, align 4
  %62 = load ptr, ptr %12, align 8
  %63 = getelementptr inbounds %struct.ParseContext_, ptr %62, i32 0, i32 1
  %64 = load i32, ptr %63, align 8
  %65 = load i32, ptr %13, align 4
  %66 = icmp eq i32 %64, %65
  br i1 %66, label %67, label %68

67:                                               ; preds = %58
  store i1 true, ptr %28, align 1
  br label %74

68:                                               ; preds = %58
  %69 = load ptr, ptr %29, align 8
  %70 = getelementptr inbounds %struct.ParseContext_, ptr %69, i32 0, i32 2
  %71 = load i32, ptr %30, align 4
  %72 = call ptr @token_type_to_string(i32 noundef %71) #4
  %73 = load i64, ptr %70, align 8
  call void (i64, ptr, ...) @sema_error_at(i64 %73, ptr noundef @.str.12, ptr noundef %72) #4
  store i1 false, ptr %28, align 1
  br label %74

74:                                               ; preds = %68, %67
  %75 = load i1, ptr %28, align 1
  br i1 %75, label %78, label %76

76:                                               ; preds = %74
  %77 = load ptr, ptr @poisoned_ast, align 8
  store ptr %77, ptr %34, align 8
  br label %270

78:                                               ; preds = %74
  %79 = load ptr, ptr %35, align 8
  call void @advance(ptr noundef %79)
  br label %80

80:                                               ; preds = %78
  %81 = load ptr, ptr %35, align 8
  store ptr %81, ptr %2, align 8
  store i32 9, ptr %3, align 4
  %82 = load ptr, ptr %2, align 8
  %83 = getelementptr inbounds %struct.ParseContext_, ptr %82, i32 0, i32 1
  %84 = load i32, ptr %83, align 8
  %85 = load i32, ptr %3, align 4
  %86 = icmp eq i32 %84, %85
  br i1 %86, label %111, label %87

87:                                               ; preds = %80
  %88 = load ptr, ptr %35, align 8
  %89 = call ptr @parse_ct_expression_list(ptr noundef %88, i1 noundef zeroext true)
  store ptr %89, ptr %37, align 8
  %90 = load ptr, ptr %37, align 8
  store ptr %90, ptr %20, align 8
  %91 = load ptr, ptr %20, align 8
  %92 = icmp eq ptr %91, null
  br i1 %92, label %100, label %93

93:                                               ; preds = %87
  %94 = load ptr, ptr %20, align 8
  %95 = getelementptr inbounds %struct.Expr_, ptr %94, i32 0, i32 2
  %96 = load i16, ptr %95, align 8
  %97 = and i16 %96, 255
  %98 = zext i16 %97 to i32
  %99 = icmp ne i32 %98, 0
  br label %100

100:                                              ; preds = %93, %87
  %101 = phi i1 [ true, %87 ], [ %99, %93 ]
  br i1 %101, label %104, label %102

102:                                              ; preds = %100
  %103 = load ptr, ptr @poisoned_ast, align 8
  store ptr %103, ptr %34, align 8
  br label %270

104:                                              ; preds = %100
  %105 = load ptr, ptr %37, align 8
  %106 = call i32 @exprid(ptr noundef %105)
  %107 = load ptr, ptr %36, align 8
  %108 = getelementptr inbounds %struct.Ast_, ptr %107, i32 0, i32 3
  %109 = getelementptr inbounds %struct.AstForStmt, ptr %108, i32 0, i32 1
  %110 = getelementptr inbounds %struct.anon.72, ptr %109, i32 0, i32 2
  store i32 %106, ptr %110, align 8
  br label %111

111:                                              ; preds = %104, %80
  br label %112

112:                                              ; preds = %111
  %113 = load ptr, ptr %35, align 8
  store ptr %113, ptr %4, align 8
  store i32 9, ptr %5, align 4
  %114 = load ptr, ptr %4, align 8
  %115 = getelementptr inbounds %struct.ParseContext_, ptr %114, i32 0, i32 1
  %116 = load i32, ptr %115, align 8
  %117 = load i32, ptr %5, align 4
  %118 = icmp eq i32 %116, %117
  br i1 %118, label %125, label %119

119:                                              ; preds = %112
  %120 = load ptr, ptr %35, align 8
  %121 = getelementptr inbounds %struct.ParseContext_, ptr %120, i32 0, i32 3
  %122 = getelementptr inbounds %union.SourceSpan, ptr %121, i32 0, i32 0
  %123 = load i64, ptr %122, align 8
  call void (i64, ptr, ...) @sema_error_at_after(i64 %123, ptr noundef @.str.11)
  %124 = load ptr, ptr @poisoned_ast, align 8
  store ptr %124, ptr %34, align 8
  br label %270

125:                                              ; preds = %112
  %126 = load ptr, ptr %35, align 8
  call void @advance(ptr noundef %126)
  br label %127

127:                                              ; preds = %125
  %128 = load ptr, ptr %35, align 8
  %129 = call ptr @parse_expr(ptr noundef %128)
  store ptr %129, ptr %38, align 8
  %130 = load ptr, ptr %38, align 8
  store ptr %130, ptr %21, align 8
  %131 = load ptr, ptr %21, align 8
  %132 = icmp eq ptr %131, null
  br i1 %132, label %140, label %133

133:                                              ; preds = %127
  %134 = load ptr, ptr %21, align 8
  %135 = getelementptr inbounds %struct.Expr_, ptr %134, i32 0, i32 2
  %136 = load i16, ptr %135, align 8
  %137 = and i16 %136, 255
  %138 = zext i16 %137 to i32
  %139 = icmp ne i32 %138, 0
  br label %140

140:                                              ; preds = %133, %127
  %141 = phi i1 [ true, %127 ], [ %139, %133 ]
  br i1 %141, label %144, label %142

142:                                              ; preds = %140
  %143 = load ptr, ptr @poisoned_ast, align 8
  store ptr %143, ptr %34, align 8
  br label %270

144:                                              ; preds = %140
  %145 = load ptr, ptr %38, align 8
  %146 = call i32 @exprid(ptr noundef %145)
  %147 = load ptr, ptr %36, align 8
  %148 = getelementptr inbounds %struct.Ast_, ptr %147, i32 0, i32 3
  %149 = getelementptr inbounds %struct.AstForStmt, ptr %148, i32 0, i32 1
  %150 = getelementptr inbounds %struct.anon.72, ptr %149, i32 0, i32 0
  store i32 %146, ptr %150, align 8
  br label %151

151:                                              ; preds = %144
  %152 = load ptr, ptr %35, align 8
  store ptr %152, ptr %6, align 8
  store i32 9, ptr %7, align 4
  %153 = load ptr, ptr %6, align 8
  %154 = getelementptr inbounds %struct.ParseContext_, ptr %153, i32 0, i32 1
  %155 = load i32, ptr %154, align 8
  %156 = load i32, ptr %7, align 4
  %157 = icmp eq i32 %155, %156
  br i1 %157, label %164, label %158

158:                                              ; preds = %151
  %159 = load ptr, ptr %35, align 8
  %160 = getelementptr inbounds %struct.ParseContext_, ptr %159, i32 0, i32 3
  %161 = getelementptr inbounds %union.SourceSpan, ptr %160, i32 0, i32 0
  %162 = load i64, ptr %161, align 8
  call void (i64, ptr, ...) @sema_error_at_after(i64 %162, ptr noundef @.str.11)
  %163 = load ptr, ptr @poisoned_ast, align 8
  store ptr %163, ptr %34, align 8
  br label %270

164:                                              ; preds = %151
  %165 = load ptr, ptr %35, align 8
  call void @advance(ptr noundef %165)
  br label %166

166:                                              ; preds = %164
  %167 = load ptr, ptr %35, align 8
  store ptr %167, ptr %8, align 8
  store i32 26, ptr %9, align 4
  %168 = load ptr, ptr %8, align 8
  %169 = getelementptr inbounds %struct.ParseContext_, ptr %168, i32 0, i32 1
  %170 = load i32, ptr %169, align 8
  %171 = load i32, ptr %9, align 4
  %172 = icmp eq i32 %170, %171
  br i1 %172, label %197, label %173

173:                                              ; preds = %166
  %174 = load ptr, ptr %35, align 8
  %175 = call ptr @parse_ct_expression_list(ptr noundef %174, i1 noundef zeroext false)
  store ptr %175, ptr %39, align 8
  %176 = load ptr, ptr %39, align 8
  store ptr %176, ptr %22, align 8
  %177 = load ptr, ptr %22, align 8
  %178 = icmp eq ptr %177, null
  br i1 %178, label %186, label %179

179:                                              ; preds = %173
  %180 = load ptr, ptr %22, align 8
  %181 = getelementptr inbounds %struct.Expr_, ptr %180, i32 0, i32 2
  %182 = load i16, ptr %181, align 8
  %183 = and i16 %182, 255
  %184 = zext i16 %183 to i32
  %185 = icmp ne i32 %184, 0
  br label %186

186:                                              ; preds = %179, %173
  %187 = phi i1 [ true, %173 ], [ %185, %179 ]
  br i1 %187, label %190, label %188

188:                                              ; preds = %186
  %189 = load ptr, ptr @poisoned_ast, align 8
  store ptr %189, ptr %34, align 8
  br label %270

190:                                              ; preds = %186
  %191 = load ptr, ptr %39, align 8
  %192 = call i32 @exprid(ptr noundef %191)
  %193 = load ptr, ptr %36, align 8
  %194 = getelementptr inbounds %struct.Ast_, ptr %193, i32 0, i32 3
  %195 = getelementptr inbounds %struct.AstForStmt, ptr %194, i32 0, i32 1
  %196 = getelementptr inbounds %struct.anon.72, ptr %195, i32 0, i32 1
  store i32 %192, ptr %196, align 4
  br label %197

197:                                              ; preds = %190, %166
  br label %198

198:                                              ; preds = %197
  %199 = load ptr, ptr %35, align 8
  store ptr %199, ptr %32, align 8
  store i32 26, ptr %33, align 4
  %200 = load ptr, ptr %32, align 8
  %201 = load i32, ptr %33, align 4
  store ptr %200, ptr %10, align 8
  store i32 %201, ptr %11, align 4
  %202 = load ptr, ptr %10, align 8
  %203 = getelementptr inbounds %struct.ParseContext_, ptr %202, i32 0, i32 1
  %204 = load i32, ptr %203, align 8
  %205 = load i32, ptr %11, align 4
  %206 = icmp eq i32 %204, %205
  br i1 %206, label %207, label %208

207:                                              ; preds = %198
  store i1 true, ptr %31, align 1
  br label %214

208:                                              ; preds = %198
  %209 = load ptr, ptr %32, align 8
  %210 = getelementptr inbounds %struct.ParseContext_, ptr %209, i32 0, i32 2
  %211 = load i32, ptr %33, align 4
  %212 = call ptr @token_type_to_string(i32 noundef %211) #4
  %213 = load i64, ptr %210, align 8
  call void (i64, ptr, ...) @sema_error_at(i64 %213, ptr noundef @.str.12, ptr noundef %212) #4
  store i1 false, ptr %31, align 1
  br label %214

214:                                              ; preds = %208, %207
  %215 = load i1, ptr %31, align 1
  br i1 %215, label %218, label %216

216:                                              ; preds = %214
  %217 = load ptr, ptr @poisoned_ast, align 8
  store ptr %217, ptr %34, align 8
  br label %270

218:                                              ; preds = %214
  %219 = load ptr, ptr %35, align 8
  call void @advance(ptr noundef %219)
  br label %220

220:                                              ; preds = %218
  %221 = load ptr, ptr %36, align 8
  %222 = getelementptr inbounds %struct.Ast_, ptr %221, i32 0, i32 0
  %223 = getelementptr inbounds %union.SourceSpan, ptr %222, i32 0, i32 0
  %224 = load i64, ptr %223, align 8
  store i64 %224, ptr %14, align 8
  store i32 6, ptr %15, align 4
  %225 = call ptr @ast_calloc()
  store ptr %225, ptr %16, align 8
  %226 = load ptr, ptr %16, align 8
  call void @llvm.memcpy.p0.p0.i64(ptr align 8 %226, ptr align 8 %14, i64 8, i1 false)
  %227 = load i32, ptr %15, align 4
  %228 = load ptr, ptr %16, align 8
  %229 = getelementptr inbounds %struct.Ast_, ptr %228, i32 0, i32 2
  %230 = trunc i32 %227 to i8
  store i8 %230, ptr %229, align 4
  %231 = load ptr, ptr %16, align 8
  store ptr %231, ptr %40, align 8
  %232 = load ptr, ptr %40, align 8
  %233 = call i32 @astid(ptr noundef %232)
  %234 = load ptr, ptr %36, align 8
  %235 = getelementptr inbounds %struct.Ast_, ptr %234, i32 0, i32 3
  %236 = getelementptr inbounds %struct.AstForStmt, ptr %235, i32 0, i32 1
  %237 = getelementptr inbounds %struct.anon.72, ptr %236, i32 0, i32 3
  store i32 %233, ptr %237, align 4
  %238 = load ptr, ptr %40, align 8
  %239 = getelementptr inbounds %struct.Ast_, ptr %238, i32 0, i32 3
  %240 = getelementptr inbounds %struct.AstCompoundStmt, ptr %239, i32 0, i32 0
  store ptr %240, ptr %41, align 8
  br label %241

241:                                              ; preds = %261, %220
  %242 = load ptr, ptr %35, align 8
  %243 = call zeroext i1 @try_consume(ptr noundef %242, i32 noundef 155)
  %244 = xor i1 %243, true
  br i1 %244, label %245, label %268

245:                                              ; preds = %241
  %246 = load ptr, ptr %35, align 8
  %247 = call ptr @parse_stmt(ptr noundef %246)
  store ptr %247, ptr %42, align 8
  %248 = load ptr, ptr %42, align 8
  store ptr %248, ptr %27, align 8
  %249 = load ptr, ptr %27, align 8
  %250 = icmp eq ptr %249, null
  br i1 %250, label %257, label %251

251:                                              ; preds = %245
  %252 = load ptr, ptr %27, align 8
  %253 = getelementptr inbounds %struct.Ast_, ptr %252, i32 0, i32 2
  %254 = load i8, ptr %253, align 4
  %255 = zext i8 %254 to i32
  %256 = icmp ne i32 %255, 0
  br label %257

257:                                              ; preds = %251, %245
  %258 = phi i1 [ true, %245 ], [ %256, %251 ]
  br i1 %258, label %261, label %259

259:                                              ; preds = %257
  %260 = load ptr, ptr @poisoned_ast, align 8
  store ptr %260, ptr %34, align 8
  br label %270

261:                                              ; preds = %257
  %262 = load ptr, ptr %42, align 8
  store ptr %262, ptr %43, align 8
  %263 = load ptr, ptr %43, align 8
  %264 = call i32 @astid(ptr noundef %263)
  %265 = load ptr, ptr %41, align 8
  store i32 %264, ptr %265, align 4
  %266 = load ptr, ptr %43, align 8
  %267 = getelementptr inbounds %struct.Ast_, ptr %266, i32 0, i32 1
  store ptr %267, ptr %41, align 8
  br label %241, !llvm.loop !14

268:                                              ; preds = %241
  %269 = load ptr, ptr %36, align 8
  store ptr %269, ptr %34, align 8
  br label %270

270:                                              ; preds = %268, %259, %216, %188, %158, %142, %119, %102, %76
  %271 = load ptr, ptr %34, align 8
  ret ptr %271
}