; Function Attrs: nounwind uwtable
define internal fastcc ptr @parse_ct_for_stmt(ptr noundef %0) unnamed_addr #0 {
  %2 = getelementptr inbounds i8, ptr %0, i64 48
  %3 = load i64, ptr %2, align 8
  %4 = tail call ptr @vmem_alloc(ptr noundef nonnull @ast_arena, i64 noundef 48) #5
  store i64 %3, ptr %4, align 8
  %5 = getelementptr inbounds i8, ptr %4, i64 12
  store i8 12, ptr %5, align 4
  tail call void @advance(ptr noundef %0) #5
  %6 = getelementptr inbounds i8, ptr %0, i64 40
  %7 = load i32, ptr %6, align 8
  %8 = icmp eq i32 %7, 19
  br i1 %8, label %.critedge107, label %9

9:                                                ; preds = %1
  %10 = tail call ptr @token_type_to_string(i32 noundef 19) #5
  %11 = load i64, ptr %2, align 8
  tail call void (i64, ptr, ...) @sema_error_at(i64 %11, ptr noundef nonnull @.str.12, ptr noundef %10) #5
  %12 = load ptr, ptr @poisoned_ast, align 8
  br label %.loopexit

.critedge107:                                     ; preds = %1
  tail call void @advance(ptr noundef nonnull %0) #5
  %13 = load i32, ptr %6, align 8
  %14 = icmp eq i32 %13, 9
  br i1 %14, label %.thread, label %15

15:                                               ; preds = %.critedge107
  %16 = tail call ptr @parse_ct_expression_list(ptr noundef nonnull %0, i1 noundef zeroext true) #5
  %17 = icmp eq ptr %16, null
  br i1 %17, label %.split89, label %18

18:                                               ; preds = %15
  %19 = getelementptr inbounds i8, ptr %16, i64 16
  %20 = load i16, ptr %19, align 8
  %21 = and i16 %20, 255
  %.not = icmp eq i16 %21, 0
  br i1 %.not, label %23, label %.split

.split:                                           ; preds = %18
  %22 = ptrtoint ptr %16 to i64
  br label %.split89

23:                                               ; preds = %18
  %24 = load ptr, ptr @poisoned_ast, align 8
  br label %.loopexit

.split89:                                         ; preds = %15, %.split
  %.sink = phi i64 [ %22, %.split ], [ 0, %15 ]
  %.sink114 = load ptr, ptr @expr_arena, align 8
  %25 = ptrtoint ptr %.sink114 to i64
  %26 = sub i64 %.sink, %25
  %phi.call.in = sdiv exact i64 %26, 56
  %phi.call = trunc i64 %phi.call.in to i32
  %27 = getelementptr inbounds i8, ptr %4, i64 32
  store i32 %phi.call, ptr %27, align 8
  %.pr = load i32, ptr %6, align 8
  %28 = icmp eq i32 %.pr, 9
  br i1 %28, label %.thread, label %29

29:                                               ; preds = %.split89
  %30 = getelementptr inbounds i8, ptr %0, i64 56
  %31 = load i64, ptr %30, align 8
  tail call void (i64, ptr, ...) @sema_error_at_after(i64 %31, ptr noundef nonnull @.str.11) #5
  %32 = load ptr, ptr @poisoned_ast, align 8
  br label %.loopexit

.thread:                                          ; preds = %.critedge107, %.split89
  tail call void @advance(ptr noundef nonnull %0) #5
  %33 = tail call ptr @parse_expr(ptr noundef nonnull %0) #5
  %34 = icmp eq ptr %33, null
  br i1 %34, label %.critedge2, label %35

35:                                               ; preds = %.thread
  %36 = getelementptr inbounds i8, ptr %33, i64 16
  %37 = load i16, ptr %36, align 8
  %38 = and i16 %37, 255
  %.not103 = icmp eq i16 %38, 0
  br i1 %.not103, label %40, label %.split90

.split90:                                         ; preds = %35
  %39 = ptrtoint ptr %33 to i64
  br label %.critedge2

40:                                               ; preds = %35
  %41 = load ptr, ptr @poisoned_ast, align 8
  br label %.loopexit

.critedge2:                                       ; preds = %.thread, %.split90
  %.sink115 = phi i64 [ %39, %.split90 ], [ 0, %.thread ]
  %.sink117 = load ptr, ptr @expr_arena, align 8
  %42 = ptrtoint ptr %.sink117 to i64
  %43 = sub i64 %.sink115, %42
  %phi.call92.in = sdiv exact i64 %43, 56
  %phi.call92 = trunc i64 %phi.call92.in to i32
  %44 = getelementptr inbounds i8, ptr %4, i64 24
  store i32 %phi.call92, ptr %44, align 8
  %45 = load i32, ptr %6, align 8
  %46 = icmp eq i32 %45, 9
  br i1 %46, label %51, label %47

47:                                               ; preds = %.critedge2
  %48 = getelementptr inbounds i8, ptr %0, i64 56
  %49 = load i64, ptr %48, align 8
  tail call void (i64, ptr, ...) @sema_error_at_after(i64 %49, ptr noundef nonnull @.str.11) #5
  %50 = load ptr, ptr @poisoned_ast, align 8
  br label %.loopexit

51:                                               ; preds = %.critedge2
  tail call void @advance(ptr noundef nonnull %0) #5
  %52 = load i32, ptr %6, align 8
  %53 = icmp eq i32 %52, 26
  br i1 %53, label %.critedge109, label %54

54:                                               ; preds = %51
  %55 = tail call ptr @parse_ct_expression_list(ptr noundef nonnull %0, i1 noundef zeroext false) #5
  %56 = icmp eq ptr %55, null
  br i1 %56, label %.split94, label %57

57:                                               ; preds = %54
  %58 = getelementptr inbounds i8, ptr %55, i64 16
  %59 = load i16, ptr %58, align 8
  %60 = and i16 %59, 255
  %.not104 = icmp eq i16 %60, 0
  br i1 %.not104, label %62, label %.split93

.split93:                                         ; preds = %57
  %61 = ptrtoint ptr %55 to i64
  br label %.split94

62:                                               ; preds = %57
  %63 = load ptr, ptr @poisoned_ast, align 8
  br label %.loopexit

.split94:                                         ; preds = %54, %.split93
  %.sink118 = phi i64 [ %61, %.split93 ], [ 0, %54 ]
  %.sink120 = load ptr, ptr @expr_arena, align 8
  %64 = ptrtoint ptr %.sink120 to i64
  %65 = sub i64 %.sink118, %64
  %phi.call95.in = sdiv exact i64 %65, 56
  %phi.call95 = trunc i64 %phi.call95.in to i32
  %66 = getelementptr inbounds i8, ptr %4, i64 28
  store i32 %phi.call95, ptr %66, align 4
  %.pr110 = load i32, ptr %6, align 8
  %67 = icmp eq i32 %.pr110, 26
  br i1 %67, label %.critedge109, label %68

68:                                               ; preds = %.split94
  %69 = tail call ptr @token_type_to_string(i32 noundef 26) #5
  %70 = load i64, ptr %2, align 8
  tail call void (i64, ptr, ...) @sema_error_at(i64 %70, ptr noundef nonnull @.str.12, ptr noundef %69) #5
  %71 = load ptr, ptr @poisoned_ast, align 8
  br label %.loopexit

.critedge109:                                     ; preds = %51, %.split94
  tail call void @advance(ptr noundef nonnull %0) #5
  %72 = load i64, ptr %4, align 8
  %73 = tail call ptr @vmem_alloc(ptr noundef nonnull @ast_arena, i64 noundef 48) #5
  store i64 %72, ptr %73, align 8
  %74 = getelementptr inbounds i8, ptr %73, i64 12
  store i8 6, ptr %74, align 4
  %75 = load ptr, ptr @ast_arena, align 8
  %76 = ptrtoint ptr %73 to i64
  %77 = ptrtoint ptr %75 to i64
  %78 = sub i64 %76, %77
  %79 = sdiv exact i64 %78, 48
  %80 = trunc i64 %79 to i32
  %81 = getelementptr inbounds i8, ptr %4, i64 36
  store i32 %80, ptr %81, align 4
  %82 = tail call zeroext i1 @try_consume(ptr noundef nonnull %0, i32 noundef 155) #5
  br i1 %82, label %.loopexit, label %.lr.ph.preheader

.lr.ph.preheader:                                 ; preds = %.critedge109
  %83 = getelementptr inbounds i8, ptr %73, i64 16
  br label %.lr.ph

.lr.ph:                                           ; preds = %.lr.ph.preheader, %.critedge6
  %.087112 = phi ptr [ %94, %.critedge6 ], [ %83, %.lr.ph.preheader ]
  %84 = tail call ptr @parse_stmt(ptr noundef %0)
  %85 = icmp eq ptr %84, null
  br i1 %85, label %.critedge6, label %86

86:                                               ; preds = %.lr.ph
  %87 = getelementptr inbounds i8, ptr %84, i64 12
  %88 = load i8, ptr %87, align 4
  %.not105 = icmp eq i8 %88, 0
  br i1 %.not105, label %90, label %.split96

.split96:                                         ; preds = %86
  %89 = ptrtoint ptr %84 to i64
  br label %.critedge6

90:                                               ; preds = %86
  %91 = load ptr, ptr @poisoned_ast, align 8
  br label %.loopexit

.critedge6:                                       ; preds = %.lr.ph, %.split96
  %.sink121 = phi i64 [ %89, %.split96 ], [ 0, %.lr.ph ]
  %.sink123 = load ptr, ptr @ast_arena, align 8
  %92 = ptrtoint ptr %.sink123 to i64
  %93 = sub i64 %.sink121, %92
  %phi.call98.in = sdiv exact i64 %93, 48
  %phi.call98 = trunc i64 %phi.call98.in to i32
  store i32 %phi.call98, ptr %.087112, align 4
  %94 = getelementptr inbounds i8, ptr %84, i64 8
  %95 = tail call zeroext i1 @try_consume(ptr noundef %0, i32 noundef 155) #5
  br i1 %95, label %.loopexit, label %.lr.ph, !llvm.loop !16

.loopexit:                                        ; preds = %.critedge6, %.critedge109, %90, %68, %62, %47, %40, %29, %23, %9
  %.088 = phi ptr [ %91, %90 ], [ %71, %68 ], [ %63, %62 ], [ %50, %47 ], [ %41, %40 ], [ %32, %29 ], [ %24, %23 ], [ %12, %9 ], [ %4, %.critedge109 ], [ %4, %.critedge6 ]
  ret ptr %.088
}